target datalayout = "e-m:e-p270:32:32-p271:32:32-p272:64:64-i64:64-i128:128-f80:128-n8:16:32:64-S128"
target triple = "x86_64-pc-linux-gnu"

%struct.ggml_opt_context = type { ptr, ptr, ptr, ptr, ptr, ptr, ptr, ptr, ptr, %"class.std::mersenne_twister_engine", ptr, ptr, ptr, ptr, ptr, ptr, ptr, ptr, ptr, i64, i32, i32, i8, ptr, ptr, ptr }
%"class.std::mersenne_twister_engine" = type { [624 x i64], i64 }

; Function Attrs: mustprogress uwtable
define void @ggml_opt_reset(ptr noundef %0, i1 noundef zeroext %1) #0 {
  %3 = alloca ptr, align 8
  %4 = alloca i8, align 1
  store ptr %0, ptr %3, align 8, !tbaa !40
  %5 = zext i1 %1 to i8
  store i8 %5, ptr %4, align 1, !tbaa !28
  %6 = load i8, ptr %4, align 1, !tbaa !28, !range !111, !noundef !112
  %7 = trunc i8 %6 to i1
  br i1 %7, label %8, label %14

8:                                                ; preds = %2
  %9 = load ptr, ptr %3, align 8, !tbaa !40
  %10 = getelementptr inbounds nuw %struct.ggml_opt_context, ptr %9, i32 0, i32 18
  %11 = load ptr, ptr %10, align 8, !tbaa !123
  call void @ggml_graph_reset(ptr noundef %11)
  %12 = load ptr, ptr %3, align 8, !tbaa !40
  %13 = getelementptr inbounds nuw %struct.ggml_opt_context, ptr %12, i32 0, i32 19
  store i64 1, ptr %13, align 8, !tbaa !130
  br label %18

14:                                               ; preds = %2
  %15 = load ptr, ptr %3, align 8, !tbaa !40
  %16 = getelementptr inbounds nuw %struct.ggml_opt_context, ptr %15, i32 0, i32 17
  %17 = load ptr, ptr %16, align 8, !tbaa !122
  call void @ggml_graph_reset(ptr noundef %17)
  br label %18

18:                                               ; preds = %14, %8
  ret void
}

; Function Attrs: mustprogress uwtable
define void @ggml_opt_forward_backward(ptr noundef %0, ptr noundef %1) #0 {
  %3 = alloca ptr, align 8
  %4 = alloca ptr, align 8
  %5 = alloca i32, align 4
  store ptr %0, ptr %3, align 8, !tbaa !40
  store ptr %1, ptr %4, align 8, !tbaa !132
  %6 = load ptr, ptr %3, align 8, !tbaa !40
  %7 = getelementptr inbounds nuw %struct.ggml_opt_context, ptr %6, i32 0, i32 20
  %8 = load i32, ptr %7, align 8, !tbaa !96
  %9 = icmp eq i32 %8, 1
  br i1 %9, label %10, label %16

10:                                               ; preds = %2
  %11 = load ptr, ptr %3, align 8, !tbaa !40
  %12 = load ptr, ptr %3, align 8, !tbaa !40
  %13 = getelementptr inbounds nuw %struct.ggml_opt_context, ptr %12, i32 0, i32 18
  %14 = load ptr, ptr %13, align 8, !tbaa !123
  %15 = load ptr, ptr %4, align 8, !tbaa !132
  call void @_ZL19ggml_opt_eval_graphP16ggml_opt_contextP11ggml_cgraphP15ggml_opt_result(ptr noundef %11, ptr noundef %14, ptr noundef %15)
  br label %44

16:                                               ; preds = %2
  call void @llvm.lifetime.start.p0(i64 4, ptr %5) #17
  %17 = load ptr, ptr %3, align 8, !tbaa !40
  %18 = getelementptr inbounds nuw %struct.ggml_opt_context, ptr %17, i32 0, i32 21
  %19 = load i32, ptr %18, align 4, !tbaa !131
  %20 = add nsw i32 %19, 1
  %21 = load ptr, ptr %3, align 8, !tbaa !40
  %22 = getelementptr inbounds nuw %struct.ggml_opt_context, ptr %21, i32 0, i32 20
  %23 = load i32, ptr %22, align 8, !tbaa !96
  %24 = srem i32 %20, %23
  store i32 %24, ptr %5, align 4, !tbaa !100
  %25 = load i32, ptr %5, align 4, !tbaa !100
  %26 = icmp eq i32 %25, 0
  br i1 %26, label %27, label %34

27:                                               ; preds = %16
  %28 = load ptr, ptr %3, align 8, !tbaa !40
  %29 = load ptr, ptr %3, align 8, !tbaa !40
  %30 = getelementptr inbounds nuw %struct.ggml_opt_context, ptr %29, i32 0, i32 18
  %31 = load ptr, ptr %30, align 8, !tbaa !123
  %32 = load ptr, ptr %4, align 8, !tbaa !132
  call void @_ZL19ggml_opt_eval_graphP16ggml_opt_contextP11ggml_cgraphP15ggml_opt_result(ptr noundef %28, ptr noundef %31, ptr noundef %32)
  %33 = load ptr, ptr %3, align 8, !tbaa !40
  call void @ggml_opt_reset(ptr noundef %33, i1 noundef zeroext false)
  br label %40

34:                                               ; preds = %16
  %35 = load ptr, ptr %3, align 8, !tbaa !40
  %36 = load ptr, ptr %3, align 8, !tbaa !40
  %37 = getelementptr inbounds nuw %struct.ggml_opt_context, ptr %36, i32 0, i32 17
  %38 = load ptr, ptr %37, align 8, !tbaa !122
  %39 = load ptr, ptr %4, align 8, !tbaa !132
  call void @_ZL19ggml_opt_eval_graphP16ggml_opt_contextP11ggml_cgraphP15ggml_opt_result(ptr noundef %35, ptr noundef %38, ptr noundef %39)
  br label %40

40:                                               ; preds = %34, %27
  %41 = load i32, ptr %5, align 4, !tbaa !100
  %42 = load ptr, ptr %3, align 8, !tbaa !40
  %43 = getelementptr inbounds nuw %struct.ggml_opt_context, ptr %42, i32 0, i32 21
  store i32 %41, ptr %43, align 4, !tbaa !131
  call void @llvm.lifetime.end.p0(i64 4, ptr %5) #17
  br label %44

44:                                               ; preds = %40, %10
  ret void
}