; Function Attrs: mustprogress uwtable
define void @ggml_opt_forward_backward(ptr noundef captures(none) %0, ptr noundef %1) local_unnamed_addr #0 {
  %3 = getelementptr inbounds nuw i8, ptr %0, i64 5152
  %4 = load i32, ptr %3, align 8, !tbaa !78
  %5 = icmp eq i32 %4, 1
  br i1 %5, label %6, label %9

6:                                                ; preds = %2
  %7 = getelementptr inbounds nuw i8, ptr %0, i64 5136
  %8 = load ptr, ptr %7, align 8, !tbaa !101
  tail call fastcc void @_ZL19ggml_opt_eval_graphP16ggml_opt_contextP11ggml_cgraphP15ggml_opt_result(ptr noundef nonnull %0, ptr noundef %8, ptr noundef %1)
  br label %24

9:                                                ; preds = %2
  %10 = getelementptr inbounds nuw i8, ptr %0, i64 5156
  %11 = load i32, ptr %10, align 4, !tbaa !72
  %12 = add nsw i32 %11, 1
  %13 = srem i32 %12, %4
  %14 = icmp eq i32 %13, 0
  br i1 %14, label %15, label %20

15:                                               ; preds = %9
  %16 = getelementptr inbounds nuw i8, ptr %0, i64 5136
  %17 = load ptr, ptr %16, align 8, !tbaa !101
  tail call fastcc void @_ZL19ggml_opt_eval_graphP16ggml_opt_contextP11ggml_cgraphP15ggml_opt_result(ptr noundef nonnull %0, ptr noundef %17, ptr noundef %1)
  %18 = getelementptr inbounds nuw i8, ptr %0, i64 5128
  %19 = load ptr, ptr %18, align 8, !tbaa !100
  tail call void @ggml_graph_reset(ptr noundef %19)
  br label %23

20:                                               ; preds = %9
  %21 = getelementptr inbounds nuw i8, ptr %0, i64 5128
  %22 = load ptr, ptr %21, align 8, !tbaa !100
  tail call fastcc void @_ZL19ggml_opt_eval_graphP16ggml_opt_contextP11ggml_cgraphP15ggml_opt_result(ptr noundef nonnull %0, ptr noundef %22, ptr noundef %1)
  br label %23

23:                                               ; preds = %20, %15
  store i32 %13, ptr %10, align 4, !tbaa !72
  br label %24

24:                                               ; preds = %23, %6
  ret void
}